target datalayout = "e-m:e-p270:32:32-p271:32:32-p272:64:64-i64:64-i128:128-f80:128-n8:16:32:64-S128"
target triple = "x86_64-pc-linux-gnu"

%"struct.std::pair" = type { i64, i64 }
%"struct.std::__atomic_base" = type { i64 }

@_ZN5folly12_GLOBAL__N_110CacheState5epochE = internal global { i64 } { i64 1 }, align 8
@_ZZN5folly13getOSThreadIDEvE5cache = internal thread_local global %"struct.std::pair" zeroinitializer, align 8

; Function Attrs: noinline noreturn nounwind uwtable
define linkonce_odr hidden void @__clang_call_terminate(ptr noundef %0) #14 comdat {
  %2 = call ptr @__cxa_begin_catch(ptr %0) #5
  call void @_ZSt9terminatev() #18
  unreachable
}

; Function Attrs: mustprogress nounwind uwtable
define linkonce_odr noundef i32 @_ZStanSt12memory_orderSt23__memory_order_modifier(i32 noundef %0, i32 noundef %1) #0 comdat {
  %3 = alloca i32, align 4
  %4 = alloca i32, align 4
  store i32 %0, ptr %3, align 4, !tbaa !42
  store i32 %1, ptr %4, align 4, !tbaa !53
  %5 = load i32, ptr %3, align 4, !tbaa !42
  %6 = load i32, ptr %4, align 4, !tbaa !53
  %7 = and i32 %5, %6
  ret i32 %7
}

; Function Attrs: alwaysinline mustprogress nounwind uwtable
define linkonce_odr noundef i64 @_ZNKSt13__atomic_baseImE4loadESt12memory_order(ptr noundef nonnull align 8 dereferenceable(8) %0, i32 noundef %1) #7 comdat align 2 personality ptr @__gxx_personality_v0 {
  %3 = alloca ptr, align 8
  %4 = alloca i32, align 4
  %5 = alloca i32, align 4
  %6 = alloca i64, align 8
  store ptr %0, ptr %3, align 8, !tbaa !40
  store i32 %1, ptr %4, align 4, !tbaa !42
  %7 = load ptr, ptr %3, align 8
  call void @llvm.lifetime.start.p0(i64 4, ptr %5) #5
  %8 = load i32, ptr %4, align 4, !tbaa !42
  %9 = invoke noundef i32 @_ZStanSt12memory_orderSt23__memory_order_modifier(i32 noundef %8, i32 noundef 65535)
          to label %10 unwind label %27

10:                                               ; preds = %2
  store i32 %9, ptr %5, align 4, !tbaa !42
  br label %11

11:                                               ; preds = %10
  br label %12

12:                                               ; preds = %11
  br label %13

13:                                               ; preds = %12
  br label %14

14:                                               ; preds = %13
  br label %15

15:                                               ; preds = %14
  br label %16

16:                                               ; preds = %15
  %17 = getelementptr inbounds nuw %"struct.std::__atomic_base", ptr %7, i32 0, i32 0
  %18 = load i32, ptr %4, align 4, !tbaa !42
  switch i32 %18, label %19 [
    i32 1, label %21
    i32 2, label %21
    i32 5, label %23
  ]

19:                                               ; preds = %16
  %20 = load atomic i64, ptr %17 monotonic, align 8
  store i64 %20, ptr %6, align 8
  br label %25

21:                                               ; preds = %16, %16
  %22 = load atomic i64, ptr %17 acquire, align 8
  store i64 %22, ptr %6, align 8
  br label %25

23:                                               ; preds = %16
  %24 = load atomic i64, ptr %17 seq_cst, align 8
  store i64 %24, ptr %6, align 8
  br label %25

25:                                               ; preds = %23, %21, %19
  %26 = load i64, ptr %6, align 8, !tbaa !38
  call void @llvm.lifetime.end.p0(i64 4, ptr %5) #5
  ret i64 %26

27:                                               ; preds = %2
  %28 = landingpad { ptr, i32 }
          catch ptr null
  %29 = extractvalue { ptr, i32 } %28, 0
  call void @__clang_call_terminate(ptr %29) #18
  unreachable
}

; Function Attrs: mustprogress nounwind uwtable
define linkonce_odr noundef nonnull align 8 dereferenceable(16) ptr @_ZNSt4pairImmEaSEOS0_(ptr noundef nonnull align 8 dereferenceable(16) %0, ptr noundef nonnull align 8 dereferenceable(16) %1) #0 comdat align 2 {
  %3 = alloca ptr, align 8
  %4 = alloca ptr, align 8
  store ptr %0, ptr %3, align 8, !tbaa !49
  store ptr %1, ptr %4, align 8, !tbaa !49
  %5 = load ptr, ptr %3, align 8
  %6 = load ptr, ptr %4, align 8, !tbaa !49
  %7 = getelementptr inbounds nuw %"struct.std::pair", ptr %6, i32 0, i32 0
  %8 = load i64, ptr %7, align 8, !tbaa !38
  %9 = getelementptr inbounds nuw %"struct.std::pair", ptr %5, i32 0, i32 0
  store i64 %8, ptr %9, align 8, !tbaa !44
  %10 = load ptr, ptr %4, align 8, !tbaa !49
  %11 = getelementptr inbounds nuw %"struct.std::pair", ptr %10, i32 0, i32 1
  %12 = load i64, ptr %11, align 8, !tbaa !38
  %13 = getelementptr inbounds nuw %"struct.std::pair", ptr %5, i32 0, i32 1
  store i64 %12, ptr %13, align 8, !tbaa !46
  ret ptr %5
}

; Function Attrs: mustprogress nounwind uwtable
define linkonce_odr void @_ZNSt4pairImmEC2IRmmTnNSt9enable_ifIXaaclsr5_PCCPE22_MoveConstructiblePairIT_T0_EEclsr5_PCCPE30_ImplicitlyMoveConvertiblePairIS4_S5_EEEbE4typeELb1EEEOS4_OS5_(ptr noundef nonnull align 8 dereferenceable(16) %0, ptr noundef nonnull align 8 dereferenceable(8) %1, ptr noundef nonnull align 8 dereferenceable(8) %2) unnamed_addr #0 comdat align 2 {
  %4 = alloca ptr, align 8
  %5 = alloca ptr, align 8
  %6 = alloca ptr, align 8
  store ptr %0, ptr %4, align 8, !tbaa !49
  store ptr %1, ptr %5, align 8, !tbaa !51
  store ptr %2, ptr %6, align 8, !tbaa !51
  %7 = load ptr, ptr %4, align 8
  %8 = getelementptr inbounds nuw %"struct.std::pair", ptr %7, i32 0, i32 0
  %9 = load ptr, ptr %5, align 8, !tbaa !51
  %10 = load i64, ptr %9, align 8, !tbaa !38
  store i64 %10, ptr %8, align 8, !tbaa !44
  %11 = getelementptr inbounds nuw %"struct.std::pair", ptr %7, i32 0, i32 1
  %12 = load ptr, ptr %6, align 8, !tbaa !51
  %13 = load i64, ptr %12, align 8, !tbaa !38
  store i64 %13, ptr %11, align 8, !tbaa !46
  ret void
}

; Function Attrs: mustprogress nounwind uwtable
define noundef i64 @_ZN5folly6detail17getOSThreadIDSlowEv() #0 {
  %1 = call i64 (i64, ...) @syscall(i64 noundef 186) #5
  ret i64 %1
}

; Function Attrs: mustprogress nounwind uwtable
define linkonce_odr noundef i64 @_ZNK5folly6detail19relaxed_atomic_baseImE4loadEv(ptr noundef nonnull align 8 dereferenceable(8) %0) #0 comdat align 2 {
  %2 = alloca ptr, align 8
  store ptr %0, ptr %2, align 8, !tbaa !47
  %3 = load ptr, ptr %2, align 8
  %4 = call noundef i64 @_ZNKSt13__atomic_baseImE4loadESt12memory_order(ptr noundef nonnull align 8 dereferenceable(8) %3, i32 noundef 0) #5
  ret i64 %4
}

; Function Attrs: mustprogress uwtable
define noundef i64 @_ZN5folly13getOSThreadIDEv() #4 {
  %1 = alloca i64, align 8
  %2 = alloca %"struct.std::pair", align 8
  %3 = alloca i64, align 8
  call void @llvm.lifetime.start.p0(i64 8, ptr %1) #5
  %4 = call noundef i64 @_ZNK5folly6detail19relaxed_atomic_baseImE4loadEv(ptr noundef nonnull align 8 dereferenceable(8) @_ZN5folly12_GLOBAL__N_110CacheState5epochE) #5
  store i64 %4, ptr %1, align 8, !tbaa !38
  %5 = load i64, ptr %1, align 8, !tbaa !38
  %6 = call align 8 ptr @llvm.threadlocal.address.p0(ptr align 8 @_ZZN5folly13getOSThreadIDEvE5cache)
  %7 = getelementptr inbounds nuw %"struct.std::pair", ptr %6, i32 0, i32 0
  %8 = load i64, ptr %7, align 8, !tbaa !44
  %9 = icmp ne i64 %5, %8
  %10 = zext i1 %9 to i64
  %11 = call i64 @llvm.expect.i64(i64 %10, i64 0)
  %12 = icmp ne i64 %11, 0
  br i1 %12, label %13, label %17

13:                                               ; preds = %0
  call void @llvm.lifetime.start.p0(i64 16, ptr %2) #5
  call void @llvm.lifetime.start.p0(i64 8, ptr %3) #5
  %14 = call noundef i64 @_ZN5folly6detail17getOSThreadIDSlowEv()
  store i64 %14, ptr %3, align 8, !tbaa !38
  call void @_ZNSt4pairImmEC2IRmmTnNSt9enable_ifIXaaclsr5_PCCPE22_MoveConstructiblePairIT_T0_EEclsr5_PCCPE30_ImplicitlyMoveConvertiblePairIS4_S5_EEEbE4typeELb1EEEOS4_OS5_(ptr noundef nonnull align 8 dereferenceable(16) %2, ptr noundef nonnull align 8 dereferenceable(8) %1, ptr noundef nonnull align 8 dereferenceable(8) %3)
  %15 = call align 8 ptr @llvm.threadlocal.address.p0(ptr align 8 @_ZZN5folly13getOSThreadIDEvE5cache)
  %16 = call noundef nonnull align 8 dereferenceable(16) ptr @_ZNSt4pairImmEaSEOS0_(ptr noundef nonnull align 8 dereferenceable(16) %15, ptr noundef nonnull align 8 dereferenceable(16) %2) #5
  call void @llvm.lifetime.end.p0(i64 8, ptr %3) #5
  call void @llvm.lifetime.end.p0(i64 16, ptr %2) #5
  br label %17

17:                                               ; preds = %13, %0
  %18 = call align 8 ptr @llvm.threadlocal.address.p0(ptr align 8 @_ZZN5folly13getOSThreadIDEvE5cache)
  %19 = getelementptr inbounds nuw %"struct.std::pair", ptr %18, i32 0, i32 1
  %20 = load i64, ptr %19, align 8, !tbaa !46
  call void @llvm.lifetime.end.p0(i64 8, ptr %1) #5
  ret i64 %20
}