; Function Attrs: mustprogress nounwind uwtable
define noundef i64 @_ZN5folly13getOSThreadIDEv() local_unnamed_addr #2 personality ptr @__gxx_personality_v0 {
  %1 = load atomic i64, ptr @_ZN5folly12_GLOBAL__N_110CacheState5epochE monotonic, align 8
  %2 = tail call align 8 ptr @llvm.threadlocal.address.p0(ptr align 8 @_ZZN5folly13getOSThreadIDEvE5cache)
  %3 = load i64, ptr %2, align 8, !tbaa !7
  %.not = icmp eq i64 %1, %3
  br i1 %.not, label %._crit_edge, label %4, !prof !12

._crit_edge:                                      ; preds = %0
  %.phi.trans.insert = getelementptr inbounds nuw i8, ptr %2, i64 8
  %.pre = load i64, ptr %.phi.trans.insert, align 8, !tbaa !13
  br label %7

4:                                                ; preds = %0
  %5 = tail call noundef i64 (i64, ...) @syscall(i64 noundef 186) #15
  store i64 %1, ptr %2, align 8, !tbaa !7
  %6 = getelementptr inbounds nuw i8, ptr %2, i64 8
  store i64 %5, ptr %6, align 8, !tbaa !13
  br label %7

7:                                                ; preds = %._crit_edge, %4
  %8 = phi i64 [ %.pre, %._crit_edge ], [ %5, %4 ]
  ret i64 %8
}